target datalayout = "e-m:e-p270:32:32-p271:32:32-p272:64:64-i64:64-i128:128-f80:128-n8:16:32:64-S128"
target triple = "x86_64-pc-linux-gnu"

%struct.rb_data_type_struct = type { ptr, %struct.anon, ptr, ptr, i64 }
%struct.anon = type { ptr, ptr, ptr, ptr, [1 x ptr] }

@rb_eRuntimeError = external global i64, align 8
@ossl_ts_token_info_type = internal constant %struct.rb_data_type_struct { ptr @.str.54, %struct.anon { ptr null, ptr @ossl_ts_token_info_free, ptr null, ptr null, [1 x ptr] zeroinitializer }, ptr null, ptr null, i64 33 }, align 8
@.str.53 = private unnamed_addr constant [32 x i8] c"TS_TST_INFO wasn't initialized.\00", align 1

; Function Attrs: nounwind sspstrong uwtable
define internal i64 @ossl_ts_token_info_get_nonce(i64 noundef %0) #0 {
  %2 = alloca i64, align 8
  %3 = alloca i64, align 8
  %4 = alloca ptr, align 8
  %5 = alloca ptr, align 8
  %6 = alloca i32, align 4
  store i64 %0, ptr %3, align 8, !tbaa !6
  call void @llvm.lifetime.start.p0(i64 8, ptr %4) #16
  call void @llvm.lifetime.start.p0(i64 8, ptr %5) #16
  br label %7

7:                                                ; preds = %1
  %8 = load i64, ptr %3, align 8, !tbaa !6
  %9 = call ptr @rb_check_typeddata(i64 noundef %8, ptr noundef @ossl_ts_token_info_type)
  store ptr %9, ptr %4, align 8, !tbaa !35
  %10 = load ptr, ptr %4, align 8, !tbaa !35
  %11 = icmp ne ptr %10, null
  br i1 %11, label %14, label %12

12:                                               ; preds = %7
  %13 = load i64, ptr @rb_eRuntimeError, align 8, !tbaa !6
  call void (i64, ptr, ...) @ossl_raise(i64 noundef %13, ptr noundef @.str.53) #17
  unreachable

14:                                               ; preds = %7
  br label %15

15:                                               ; preds = %14
  br label %16

16:                                               ; preds = %15
  %17 = load ptr, ptr %4, align 8, !tbaa !35
  %18 = call ptr @TS_TST_INFO_get_nonce(ptr noundef %17)
  store ptr %18, ptr %5, align 8, !tbaa !25
  %19 = icmp ne ptr %18, null
  br i1 %19, label %21, label %20

20:                                               ; preds = %16
  store i64 4, ptr %2, align 8
  store i32 1, ptr %6, align 4
  br label %24

21:                                               ; preds = %16
  %22 = load ptr, ptr %5, align 8, !tbaa !25
  %23 = call i64 @asn1integer_to_num(ptr noundef %22)
  store i64 %23, ptr %2, align 8
  store i32 1, ptr %6, align 4
  br label %24

24:                                               ; preds = %21, %20
  call void @llvm.lifetime.end.p0(i64 8, ptr %5) #16
  call void @llvm.lifetime.end.p0(i64 8, ptr %4) #16
  %25 = load i64, ptr %2, align 8
  ret i64 %25
}